; Function Attrs: nounwind uwtable
define hidden void @mpd_qminus(ptr noundef %0, ptr noundef %1, ptr noundef readonly captures(none) %2, ptr noundef %3) local_unnamed_addr #10 {
  %5 = load i8, ptr %1, align 8, !tbaa !19
  %6 = and i8 %5, 14
  %.not = icmp eq i8 %6, 0
  br i1 %.not, label %9, label %7

7:                                                ; preds = %4
  %8 = tail call i32 @mpd_qcheck_nan(ptr noundef %0, ptr noundef nonnull %1, ptr noundef %2, ptr noundef %3)
  %.not16 = icmp eq i32 %8, 0
  br i1 %.not16, label %._crit_edge, label %98

._crit_edge:                                      ; preds = %7
  %.pre = load i8, ptr %1, align 8, !tbaa !19
  br label %9

9:                                                ; preds = %._crit_edge, %4
  %10 = phi i8 [ %.pre, %._crit_edge ], [ %5, %4 ]
  %11 = and i8 %10, 14
  %.not.i = icmp eq i8 %11, 0
  br i1 %.not.i, label %mpd_iszero.exit, label %mpd_iszero.exit.thread

mpd_iszero.exit:                                  ; preds = %9
  %12 = getelementptr inbounds nuw i8, ptr %1, i64 40
  %13 = load ptr, ptr %12, align 8, !tbaa !17
  %14 = getelementptr inbounds nuw i8, ptr %1, i64 24
  %15 = load i64, ptr %14, align 8, !tbaa !18
  %16 = getelementptr i64, ptr %13, i64 %15
  %17 = getelementptr i8, ptr %16, i64 -8
  %18 = load i64, ptr %17, align 8, !tbaa !3
  %.not30 = icmp eq i64 %18, 0
  br i1 %.not30, label %19, label %mpd_iszero.exit.thread

19:                                               ; preds = %mpd_iszero.exit
  %20 = getelementptr inbounds nuw i8, ptr %2, i64 36
  %21 = load i32, ptr %20, align 4, !tbaa !29
  %.not18 = icmp eq i32 %21, 3
  br i1 %.not18, label %mpd_iszero.exit.thread, label %22

22:                                               ; preds = %19
  %23 = icmp eq ptr %0, %1
  br i1 %23, label %56, label %24

24:                                               ; preds = %22
  %25 = load i64, ptr @MPD_MINALLOC, align 8, !tbaa !3
  %26 = tail call i64 @llvm.smax.i64(i64 %15, i64 %25)
  %27 = getelementptr inbounds nuw i8, ptr %0, i64 32
  %28 = load i64, ptr %27, align 8, !tbaa !21
  %29 = icmp eq i64 %26, %28
  %.pre20.i.i = load i8, ptr %0, align 8, !tbaa !19
  br i1 %29, label %mpd_qresize.exit.thread.i.i, label %30

30:                                               ; preds = %24
  %31 = and i8 %.pre20.i.i, 32
  %.not.i.i.i = icmp eq i8 %31, 0
  br i1 %.not.i.i.i, label %36, label %32

32:                                               ; preds = %30
  %33 = icmp sgt i64 %26, %28
  br i1 %33, label %34, label %mpd_qresize.exit.thread.i.i

34:                                               ; preds = %32
  %35 = tail call i32 @mpd_switch_to_dyn(ptr noundef nonnull %0, i64 noundef %26, ptr noundef %3) #33
  br label %mpd_qresize.exit.i.i

36:                                               ; preds = %30
  %37 = tail call i32 @mpd_realloc_dyn(ptr noundef nonnull %0, i64 noundef %26, ptr noundef %3) #33
  br label %mpd_qresize.exit.i.i

mpd_qresize.exit.i.i:                             ; preds = %36, %34
  %.0.i.i.i = phi i32 [ %35, %34 ], [ %37, %36 ]
  %.not.i.i = icmp eq i32 %.0.i.i.i, 0
  br i1 %.not.i.i, label %mpd_qcopy_abs.exit, label %mpd_qresize.exit.mpd_qresize.exit.thread_crit_edge.i.i

mpd_qresize.exit.mpd_qresize.exit.thread_crit_edge.i.i: ; preds = %mpd_qresize.exit.i.i
  %.pre.i.i = load i8, ptr %0, align 8, !tbaa !19
  %.pre21.i.i = load i64, ptr %14, align 8, !tbaa !18
  %.pre31 = load i8, ptr %1, align 8, !tbaa !19
  %.pre32 = load ptr, ptr %12, align 8, !tbaa !17
  br label %mpd_qresize.exit.thread.i.i

mpd_qresize.exit.thread.i.i:                      ; preds = %mpd_qresize.exit.mpd_qresize.exit.thread_crit_edge.i.i, %32, %24
  %38 = phi ptr [ %.pre32, %mpd_qresize.exit.mpd_qresize.exit.thread_crit_edge.i.i ], [ %13, %32 ], [ %13, %24 ]
  %39 = phi i8 [ %.pre31, %mpd_qresize.exit.mpd_qresize.exit.thread_crit_edge.i.i ], [ %10, %32 ], [ %10, %24 ]
  %40 = phi i64 [ %.pre21.i.i, %mpd_qresize.exit.mpd_qresize.exit.thread_crit_edge.i.i ], [ %15, %32 ], [ %15, %24 ]
  %41 = phi i8 [ %.pre.i.i, %mpd_qresize.exit.mpd_qresize.exit.thread_crit_edge.i.i ], [ %.pre20.i.i, %32 ], [ %.pre20.i.i, %24 ]
  %42 = and i8 %41, -16
  %43 = and i8 %39, 15
  %44 = or disjoint i8 %43, %42
  store i8 %44, ptr %0, align 8, !tbaa !19
  %45 = getelementptr inbounds nuw i8, ptr %1, i64 8
  %46 = load i64, ptr %45, align 8, !tbaa !7
  %47 = getelementptr inbounds nuw i8, ptr %0, i64 8
  store i64 %46, ptr %47, align 8, !tbaa !7
  %48 = getelementptr inbounds nuw i8, ptr %1, i64 16
  %49 = load i64, ptr %48, align 8, !tbaa !11
  %50 = getelementptr inbounds nuw i8, ptr %0, i64 16
  store i64 %49, ptr %50, align 8, !tbaa !11
  %51 = getelementptr inbounds nuw i8, ptr %0, i64 24
  store i64 %40, ptr %51, align 8, !tbaa !18
  %52 = getelementptr inbounds nuw i8, ptr %0, i64 40
  %53 = load ptr, ptr %52, align 8, !tbaa !17
  %54 = load i64, ptr %14, align 8, !tbaa !18
  %55 = shl i64 %54, 3
  tail call void @llvm.memcpy.p0.p0.i64(ptr align 8 %53, ptr align 8 %38, i64 %55, i1 false)
  br label %56

56:                                               ; preds = %mpd_qresize.exit.thread.i.i, %22
  %57 = load i8, ptr %0, align 8, !tbaa !19
  %58 = and i8 %57, -2
  br label %mpd_qcopy_abs.exit.sink.split

mpd_iszero.exit.thread:                           ; preds = %9, %19, %mpd_iszero.exit
  %59 = icmp eq ptr %0, %1
  br i1 %59, label %95, label %60

60:                                               ; preds = %mpd_iszero.exit.thread
  %61 = getelementptr inbounds nuw i8, ptr %1, i64 24
  %62 = load i64, ptr %61, align 8, !tbaa !18
  %63 = load i64, ptr @MPD_MINALLOC, align 8, !tbaa !3
  %64 = tail call i64 @llvm.smax.i64(i64 %62, i64 %63)
  %65 = getelementptr inbounds nuw i8, ptr %0, i64 32
  %66 = load i64, ptr %65, align 8, !tbaa !21
  %67 = icmp eq i64 %64, %66
  %.pre20.i.i19 = load i8, ptr %0, align 8, !tbaa !19
  br i1 %67, label %mpd_qresize.exit.thread.i.i21, label %68

68:                                               ; preds = %60
  %69 = and i8 %.pre20.i.i19, 32
  %.not.i.i.i20 = icmp eq i8 %69, 0
  br i1 %.not.i.i.i20, label %74, label %70

70:                                               ; preds = %68
  %71 = icmp sgt i64 %64, %66
  br i1 %71, label %72, label %mpd_qresize.exit.thread.i.i21

72:                                               ; preds = %70
  %73 = tail call i32 @mpd_switch_to_dyn(ptr noundef nonnull %0, i64 noundef %64, ptr noundef %3) #33
  br label %mpd_qresize.exit.i.i23

74:                                               ; preds = %68
  %75 = tail call i32 @mpd_realloc_dyn(ptr noundef nonnull %0, i64 noundef %64, ptr noundef %3) #33
  br label %mpd_qresize.exit.i.i23

mpd_qresize.exit.i.i23:                           ; preds = %74, %72
  %.0.i.i.i24 = phi i32 [ %73, %72 ], [ %75, %74 ]
  %.not.i.i25 = icmp eq i32 %.0.i.i.i24, 0
  br i1 %.not.i.i25, label %mpd_qcopy_abs.exit, label %mpd_qresize.exit.mpd_qresize.exit.thread_crit_edge.i.i26

mpd_qresize.exit.mpd_qresize.exit.thread_crit_edge.i.i26: ; preds = %mpd_qresize.exit.i.i23
  %.pre.i.i27 = load i8, ptr %0, align 8, !tbaa !19
  %.pre21.i.i28 = load i64, ptr %61, align 8, !tbaa !18
  %.pre33 = load i8, ptr %1, align 8, !tbaa !19
  br label %mpd_qresize.exit.thread.i.i21

mpd_qresize.exit.thread.i.i21:                    ; preds = %mpd_qresize.exit.mpd_qresize.exit.thread_crit_edge.i.i26, %70, %60
  %76 = phi i8 [ %.pre33, %mpd_qresize.exit.mpd_qresize.exit.thread_crit_edge.i.i26 ], [ %10, %70 ], [ %10, %60 ]
  %77 = phi i64 [ %.pre21.i.i28, %mpd_qresize.exit.mpd_qresize.exit.thread_crit_edge.i.i26 ], [ %62, %70 ], [ %62, %60 ]
  %78 = phi i8 [ %.pre.i.i27, %mpd_qresize.exit.mpd_qresize.exit.thread_crit_edge.i.i26 ], [ %.pre20.i.i19, %70 ], [ %.pre20.i.i19, %60 ]
  %79 = and i8 %78, -16
  %80 = and i8 %76, 15
  %81 = or disjoint i8 %80, %79
  store i8 %81, ptr %0, align 8, !tbaa !19
  %82 = getelementptr inbounds nuw i8, ptr %1, i64 8
  %83 = load i64, ptr %82, align 8, !tbaa !7
  %84 = getelementptr inbounds nuw i8, ptr %0, i64 8
  store i64 %83, ptr %84, align 8, !tbaa !7
  %85 = getelementptr inbounds nuw i8, ptr %1, i64 16
  %86 = load i64, ptr %85, align 8, !tbaa !11
  %87 = getelementptr inbounds nuw i8, ptr %0, i64 16
  store i64 %86, ptr %87, align 8, !tbaa !11
  %88 = getelementptr inbounds nuw i8, ptr %0, i64 24
  store i64 %77, ptr %88, align 8, !tbaa !18
  %89 = getelementptr inbounds nuw i8, ptr %0, i64 40
  %90 = load ptr, ptr %89, align 8, !tbaa !17
  %91 = getelementptr inbounds nuw i8, ptr %1, i64 40
  %92 = load ptr, ptr %91, align 8, !tbaa !17
  %93 = load i64, ptr %61, align 8, !tbaa !18
  %94 = shl i64 %93, 3
  tail call void @llvm.memcpy.p0.p0.i64(ptr align 8 %90, ptr align 8 %92, i64 %94, i1 false)
  br label %95

95:                                               ; preds = %mpd_qresize.exit.thread.i.i21, %mpd_iszero.exit.thread
  %96 = load i8, ptr %0, align 8, !tbaa !19
  %97 = xor i8 %96, 1
  br label %mpd_qcopy_abs.exit.sink.split

mpd_qcopy_abs.exit.sink.split:                    ; preds = %56, %95
  %.sink = phi i8 [ %97, %95 ], [ %58, %56 ]
  store i8 %.sink, ptr %0, align 8, !tbaa !19
  br label %mpd_qcopy_abs.exit

mpd_qcopy_abs.exit:                               ; preds = %mpd_qcopy_abs.exit.sink.split, %mpd_qresize.exit.i.i23, %mpd_qresize.exit.i.i
  tail call void @mpd_qfinalize(ptr noundef nonnull %0, ptr noundef %2, ptr noundef %3)
  br label %98

98:                                               ; preds = %7, %mpd_qcopy_abs.exit
  ret void
}